; Function Attrs: nounwind uwtable
define internal range(i32 0, 2) i32 @dh_import(ptr noundef %0, i32 noundef %1, ptr noundef %2) #0 {
  %4 = tail call i32 @ossl_prov_is_running() #8
  %5 = icmp eq i32 %4, 0
  %6 = icmp eq ptr %0, null
  %or.cond = or i1 %6, %5
  %7 = and i32 %1, 7
  %8 = icmp eq i32 %7, 0
  %or.cond18 = or i1 %8, %or.cond
  br i1 %or.cond18, label %17, label %9

9:                                                ; preds = %3
  %10 = tail call i32 @ossl_dh_params_fromdata(ptr noundef nonnull %0, ptr noundef %2) #8
  %11 = icmp ne i32 %10, 0
  %12 = and i32 %1, 3
  %.not = icmp ne i32 %12, 0
  %brmerge.not = select i1 %.not, i1 %11, i1 false
  %not..not = xor i1 %.not, true
  %narrow = select i1 %not..not, i1 %11, i1 false
  br i1 %brmerge.not, label %13, label %17

13:                                               ; preds = %9
  %14 = and i32 %1, 1
  %15 = tail call i32 @ossl_dh_key_fromdata(ptr noundef nonnull %0, ptr noundef %2, i32 noundef %14) #8
  %16 = icmp ne i32 %15, 0
  br label %17

17:                                               ; preds = %9, %13, %3
  %.0.shrunk = phi i1 [ false, %3 ], [ %narrow, %9 ], [ %16, %13 ]
  %.0 = zext i1 %.0.shrunk to i32
  ret i32 %.0
}